; Function Attrs: mustprogress nounwind uwtable
define dso_local void @_ZN5clang6format17WhitespaceManager17appendNewlineTextERNSt7__cxx1112basic_stringIcSt11char_traitsIcESaIcEEEj(ptr nocapture noundef nonnull readonly align 8 dereferenceable(2257) %0, ptr noundef nonnull align 8 dereferenceable(32) %1, i32 noundef %2) local_unnamed_addr #0 align 2 {
  %4 = getelementptr inbounds nuw i8, ptr %0, i64 2256
  %5 = load i8, ptr %4, align 8
  %6 = trunc i8 %5 to i1
  br i1 %6, label %7, label %14

7:                                                ; preds = %3
  %8 = tail call noundef i64 @_ZNKSt7__cxx1112basic_stringIcSt11char_traitsIcESaIcEE4sizeEv(ptr noundef nonnull align 8 dereferenceable(32) %1) #18
  %9 = shl i32 %2, 1
  %10 = zext i32 %9 to i64
  %11 = add i64 %8, %10
  tail call void @_ZNSt7__cxx1112basic_stringIcSt11char_traitsIcESaIcEE7reserveEm(ptr noundef nonnull align 8 dereferenceable(32) %1, i64 noundef %11) #18
  %.not = icmp eq i32 %2, 0
  br i1 %.not, label %.loopexit, label %.lr.ph

.lr.ph:                                           ; preds = %7, %.lr.ph
  %.09 = phi i32 [ %13, %.lr.ph ], [ 0, %7 ]
  %12 = tail call noundef nonnull align 8 dereferenceable(32) ptr @_ZNSt7__cxx1112basic_stringIcSt11char_traitsIcESaIcEE6appendEPKc(ptr noundef nonnull align 8 dereferenceable(32) %1, ptr noundef nonnull @.str.2) #18
  %13 = add nuw i32 %.09, 1
  %exitcond.not = icmp eq i32 %13, %2
  br i1 %exitcond.not, label %.loopexit, label %.lr.ph, !llvm.loop !97

14:                                               ; preds = %3
  %15 = zext i32 %2 to i64
  %16 = tail call noundef nonnull align 8 dereferenceable(32) ptr @_ZNSt7__cxx1112basic_stringIcSt11char_traitsIcESaIcEE6appendEmc(ptr noundef nonnull align 8 dereferenceable(32) %1, i64 noundef %15, i8 noundef signext 10) #18
  br label %.loopexit

.loopexit:                                        ; preds = %.lr.ph, %7, %14
  ret void
}